csympy.matrices.immutable
ImmutableMatrix
p0
(csympy.core.numbers
Integer
p1
(I4
tp2
Rp3
(dp4
bg3
csympy.core.containers
Tuple
p5
(csympy.core.add
Add
p6
(csympy.core.mul
Mul
p7
(csympy.core.numbers
Float
p8
((I0
S'11a62633145c07L'
p9
I-106
I53
tp10
tp11
Rp12
(dp13
S'_prec'
p14
I53
sbcsympy.functions.elementary.trigonometric
cos
p15
(g6
(csympy.core.symbol
Symbol
p16
(S'q2'
p17
tp18
Rp19
(dp20
S'_assumptions'
p21
ccopy_reg
_reconstructor
p22
(csympy.core.assumptions
StdFactKB
p23
c__builtin__
dict
p24
(dp25
S'real'
p26
NsS'irrational'
p27
NsS'antihermitian'
p28
NsS'nonpositive'
p29
NsS'algebraic'
p30
NsS'hermitian'
p31
NsS'infinite'
p32
NsS'integer'
p33
NsS'imaginary'
p34
NsS'odd'
p35
NsS'even'
p36
NsS'commutative'
p37
I01
sS'zero'
p38
NsS'positive'
p39
NsS'negative'
p40
NsS'nonnegative'
p41
NsS'complex'
p42
NsS'rational'
p43
NsS'finite'
p44
Nstp45
Rp46
(dp47
S'_generator'
p48
(dp49
sbsbg16
(S'q3'
p50
tp51
Rp52
(dp53
g21
g22
(g23
g24
(dp54
g26
Nsg27
Nsg28
Nsg29
Nsg30
Nsg31
Nsg32
Nsg33
Nsg34
Nsg35
Nsg36
Nsg37
I01
sg38
Nsg39
Nsg40
Nsg41
Nsg42
Nsg43
Nsg44
Nstp55
Rp56
(dp57
g48
(dp58
sbsbtp59
Rp60
(dp61
btp62
Rp63
(dp64
bcsympy.functions.elementary.trigonometric
sin
p65
(g16
(S'p'
p66
tp67
Rp68
(dp69
g21
g22
(g23
g24
(dp70
g26
Nsg27
Nsg28
Nsg29
Nsg30
Nsg31
Nsg32
Nsg33
Nsg34
Nsg35
Nsg36
Nsg37
I01
sg38
Nsg39
Nsg40
Nsg41
Nsg42
Nsg43
Nsg44
Nstp71
Rp72
(dp73
g48
(dp74
sbsbtp75
Rp76
(dp77
btp78
Rp79
(dp80
bg7
(g8
((I0
S'1L'
p81
I0
I1
tp82
tp83
Rp84
(dp85
g14
I53
sbg15
(g68
tp86
Rp87
(dp88
bg15
(g16
(S'r'
p89
tp90
Rp91
(dp92
g21
g22
(g23
g24
(dp93
g26
Nsg27
Nsg28
Nsg29
Nsg30
Nsg31
Nsg32
Nsg33
Nsg34
Nsg35
Nsg36
Nsg37
I01
sg38
Nsg39
Nsg40
Nsg41
Nsg42
Nsg43
Nsg44
Nstp94
Rp95
(dp96
g48
(dp97
sbsbtp98
Rp99
(dp100
bg63
tp101
Rp102
(dp103
bg7
(g8
((I0
S'26ef9d0b14ba9L'
p104
I-156
I50
tp105
tp106
Rp107
(dp108
g14
I53
sbg87
g63
g65
(g91
tp109
Rp110
(dp111
btp112
Rp113
(dp114
bg7
(g8
((I0
S'26ef9d0b14ba9L'
p115
I-156
I50
tp116
tp117
Rp118
(dp119
g14
I53
sbg99
g65
(g6
(g16
(S'q1'
p120
tp121
Rp122
(dp123
g21
g22
(g23
g24
(dp124
g26
Nsg27
Nsg28
Nsg29
Nsg30
Nsg38
Nsg32
Nsg33
Nsg31
Nsg35
Nsg34
Nsg36
Nsg37
I01
sg39
Nsg40
Nsg41
Nsg42
Nsg43
Nsg44
Nstp125
Rp126
(dp127
g48
(dp128
sbsbg7
(csympy.core.numbers
NegativeOne
p129
(I-1
tp130
Rp131
(dp132
bg16
(S'y'
p133
tp134
Rp135
(dp136
g21
g22
(g23
g24
(dp137
g26
NsS'polar'
p138
Nsg27
Nsg28
Nsg29
Nsg30
Nsg31
Nsg32
Nsg33
Nsg34
Nsg35
Nsg36
Nsg37
I01
sg38
Nsg39
Nsg40
Nsg41
Nsg42
Nsg43
Nsg44
Nstp139
Rp140
(dp141
g48
(dp142
sbsbtp143
Rp144
(dp145
btp146
Rp147
(dp148
btp149
Rp150
(dp151
bg65
(g6
(g19
g52
tp152
Rp153
(dp154
btp155
Rp156
(dp157
btp158
Rp159
(dp160
bg7
(g8
((I1
S'1L'
p161
I0
I1
tp162
tp163
Rp164
(dp165
g14
I53
sbg110
g150
g156
tp166
Rp167
(dp168
bg7
(g8
((I1
S'11a62633145c07L'
p169
I-106
I53
tp170
tp171
Rp172
(dp173
g14
I53
sbg87
g15
(g6
(g122
g144
tp174
Rp175
(dp176
btp177
Rp178
(dp179
bg156
tp180
Rp181
(dp182
bg7
(g8
((I0
S'1L'
p183
I0
I1
tp184
tp185
Rp186
(dp187
g14
I53
sbg99
g178
g76
g156
tp188
Rp189
(dp190
bg7
(g8
((I0
S'26ef9d0b14ba9L'
p191
I-156
I50
tp192
tp193
Rp194
(dp195
g14
I53
sbg178
g76
g110
g156
tp196
Rp197
(dp198
btp199
Rp200
(dp201
bg6
(g7
(g8
((I0
S'11a62633145c07L'
p202
I-105
I53
tp203
tp204
Rp205
(dp206
g14
I53
sbg63
g76
tp207
Rp208
(dp209
bg7
(g8
((I1
S'1L'
p210
I0
I1
tp211
tp212
Rp213
(dp214
g14
I53
sbg87
g63
g110
tp215
Rp216
(dp217
bg7
(g8
((I1
S'1L'
p218
I0
I1
tp219
tp220
Rp221
(dp222
g14
I53
sbg99
g150
g156
tp223
Rp224
(dp225
bg7
(g8
((I1
S'11a62633145c07L'
p226
I-105
I53
tp227
tp228
Rp229
(dp230
g14
I53
sbg87
g178
g156
tp231
Rp232
(dp233
bg7
(g8
((I1
S'1L'
p234
I0
I1
tp235
tp236
Rp237
(dp238
g14
I53
sbg178
g76
g110
g156
tp239
Rp240
(dp241
btp242
Rp243
(dp244
bg6
(g7
(g8
((I1
S'1L'
p245
I0
I1
tp246
tp247
Rp248
(dp249
g14
I53
sbg63
g76
tp250
Rp251
(dp252
bg7
(g8
((I0
S'1L'
p253
I0
I1
tp254
tp255
Rp256
(dp257
g14
I53
sbg87
g178
g156
tp258
Rp259
(dp260
bg7
(g8
((I0
S'11a62633145c07L'
p261
I-106
I53
tp262
tp263
Rp264
(dp265
g14
I53
sbg87
g99
g63
tp266
Rp267
(dp268
bg7
(g8
((I1
S'11a62633145c07L'
p269
I-106
I53
tp270
tp271
Rp272
(dp273
g14
I53
sbg110
g150
g156
tp274
Rp275
(dp276
bg7
(g8
((I1
S'11a62633145c07L'
p277
I-105
I53
tp278
tp279
Rp280
(dp281
g14
I53
sbg87
g63
g110
tp282
Rp283
(dp284
bg7
(g8
((I1
S'11a62633145c07L'
p285
I-105
I53
tp286
tp287
Rp288
(dp289
g14
I53
sbg99
g150
g156
tp290
Rp291
(dp292
bg7
(g8
((I0
S'11a62633145c07L'
p293
I-106
I53
tp294
tp295
Rp296
(dp297
g14
I53
sbg99
g178
g76
g156
tp298
Rp299
(dp300
bg7
(g8
((I1
S'11a62633145c07L'
p301
I-105
I53
tp302
tp303
Rp304
(dp305
g14
I53
sbg178
g76
g110
g156
tp306
Rp307
(dp308
btp309
Rp310
(dp311
bcsympy.core.numbers
Zero
p312
(I0
tp313
Rp314
(dp315
bg6
(g7
(g8
((I1
S'11a62633145c07L'
p316
I-106
I53
tp317
tp318
Rp319
(dp320
g14
I53
sbg76
g156
tp321
Rp322
(dp323
bg7
(g8
((I0
S'26ef9d0b14ba9L'
p324
I-156
I50
tp325
tp326
Rp327
(dp328
g14
I53
sbg99
g63
g150
tp329
Rp330
(dp331
bg7
(g8
((I1
S'1L'
p332
I0
I1
tp333
tp334
Rp335
(dp336
g14
I53
sbg87
g99
g156
tp337
Rp338
(dp339
bg7
(g8
((I1
S'1L'
p340
I0
I1
tp341
tp342
Rp343
(dp344
g14
I53
sbg63
g110
g150
tp345
Rp346
(dp347
bg7
(g8
((I1
S'26ef9d0b14ba9L'
p348
I-156
I50
tp349
tp350
Rp351
(dp352
g14
I53
sbg87
g110
g156
tp353
Rp354
(dp355
bg7
(g8
((I1
S'11a62633145c07L'
p356
I-106
I53
tp357
tp358
Rp359
(dp360
g14
I53
sbg87
g178
g63
tp361
Rp362
(dp363
bg7
(g8
((I0
S'1L'
p364
I0
I1
tp365
tp366
Rp367
(dp368
g14
I53
sbg99
g178
g63
g76
tp369
Rp370
(dp371
bg7
(g8
((I0
S'26ef9d0b14ba9L'
p372
I-156
I50
tp373
tp374
Rp375
(dp376
g14
I53
sbg178
g63
g76
g110
tp377
Rp378
(dp379
btp380
Rp381
(dp382
bg6
(g7
(g8
((I1
S'11a62633145c07L'
p383
I-105
I53
tp384
tp385
Rp386
(dp387
g14
I53
sbg76
g156
tp388
Rp389
(dp390
bg7
(g8
((I0
S'1L'
p391
I0
I1
tp392
tp393
Rp394
(dp395
g14
I53
sbg87
g110
g156
tp396
Rp397
(dp398
bg7
(g8
((I1
S'1L'
p399
I0
I1
tp400
tp401
Rp402
(dp403
g14
I53
sbg99
g63
g150
tp404
Rp405
(dp406
bg7
(g8
((I1
S'11a62633145c07L'
p407
I-105
I53
tp408
tp409
Rp410
(dp411
g14
I53
sbg87
g178
g63
tp412
Rp413
(dp414
bg7
(g8
((I1
S'1L'
p415
I0
I1
tp416
tp417
Rp418
(dp419
g14
I53
sbg178
g63
g76
g110
tp420
Rp421
(dp422
btp423
Rp424
(dp425
bg6
(g7
(g8
((I0
S'1L'
p426
I0
I1
tp427
tp428
Rp429
(dp430
g14
I53
sbg76
g156
tp431
Rp432
(dp433
bg7
(g8
((I0
S'1L'
p434
I0
I1
tp435
tp436
Rp437
(dp438
g14
I53
sbg87
g178
g63
tp439
Rp440
(dp441
bg7
(g8
((I0
S'11a62633145c07L'
p442
I-105
I53
tp443
tp444
Rp445
(dp446
g14
I53
sbg87
g110
g156
tp447
Rp448
(dp449
bg7
(g8
((I1
S'11a62633145c07L'
p450
I-106
I53
tp451
tp452
Rp453
(dp454
g14
I53
sbg87
g99
g156
tp455
Rp456
(dp457
bg7
(g8
((I1
S'11a62633145c07L'
p458
I-106
I53
tp459
tp460
Rp461
(dp462
g14
I53
sbg63
g110
g150
tp463
Rp464
(dp465
bg7
(g8
((I1
S'11a62633145c07L'
p466
I-105
I53
tp467
tp468
Rp469
(dp470
g14
I53
sbg99
g63
g150
tp471
Rp472
(dp473
bg7
(g8
((I0
S'11a62633145c07L'
p474
I-106
I53
tp475
tp476
Rp477
(dp478
g14
I53
sbg99
g178
g63
g76
tp479
Rp480
(dp481
bg7
(g8
((I1
S'11a62633145c07L'
p482
I-105
I53
tp483
tp484
Rp485
(dp486
g14
I53
sbg178
g63
g76
g110
tp487
Rp488
(dp489
btp490
Rp491
(dp492
bg314
g6
(g7
(g8
((I0
S'26ef9d0b14ba9L'
p493
I-156
I50
tp494
tp495
Rp496
(dp497
g14
I53
sbg99
g178
tp498
Rp499
(dp500
bg7
(g8
((I0
S'11a62633145c07L'
p501
I-106
I53
tp502
tp503
Rp504
(dp505
g14
I53
sbg87
g150
tp506
Rp507
(dp508
bg7
(g8
((I1
S'1L'
p509
I0
I1
tp510
tp511
Rp512
(dp513
g14
I53
sbg178
g110
tp514
Rp515
(dp516
bg7
(g8
((I1
S'1L'
p517
I0
I1
tp518
tp519
Rp520
(dp521
g14
I53
sbg99
g76
g150
tp522
Rp523
(dp524
bg7
(g8
((I1
S'26ef9d0b14ba9L'
p525
I-156
I50
tp526
tp527
Rp528
(dp529
g14
I53
sbg76
g110
g150
tp530
Rp531
(dp532
btp533
Rp534
(dp535
bg6
(g7
(g8
((I0
S'11a62633145c07L'
p536
I-105
I53
tp537
tp538
Rp539
(dp540
g14
I53
sbg87
g150
tp541
Rp542
(dp543
bg7
(g8
((I1
S'1L'
p544
I0
I1
tp545
tp546
Rp547
(dp548
g14
I53
sbg99
g178
tp549
Rp550
(dp551
bg7
(g8
((I0
S'1L'
p552
I0
I1
tp553
tp554
Rp555
(dp556
g14
I53
sbg76
g110
g150
tp557
Rp558
(dp559
btp560
Rp561
(dp562
bg6
(g7
(g8
((I1
S'1L'
p563
I0
I1
tp564
tp565
Rp566
(dp567
g14
I53
sbg87
g150
tp568
Rp569
(dp570
bg7
(g8
((I1
S'11a62633145c07L'
p571
I-106
I53
tp572
tp573
Rp574
(dp575
g14
I53
sbg178
g110
tp576
Rp577
(dp578
bg7
(g8
((I1
S'11a62633145c07L'
p579
I-105
I53
tp580
tp581
Rp582
(dp583
g14
I53
sbg99
g178
tp584
Rp585
(dp586
bg7
(g8
((I0
S'11a62633145c07L'
p587
I-105
I53
tp588
tp589
Rp590
(dp591
g14
I53
sbg76
g110
g150
tp592
Rp593
(dp594
bg7
(g8
((I1
S'11a62633145c07L'
p595
I-106
I53
tp596
tp597
Rp598
(dp599
g14
I53
sbg99
g76
g150
tp600
Rp601
(dp602
btp603
Rp604
(dp605
bg314
g314
g314
g314
csympy.core.numbers
One
p606
(I1
tp607
Rp608
(dp609
btp610
Rp611
(dp612
btp613
Rp614
(dp615
b.