csympy.matrices.immutable
ImmutableMatrix
p0
(csympy.core.numbers
Integer
p1
(I4
tp2
Rp3
(dp4
bg3
csympy.core.containers
Tuple
p5
(csympy.core.add
Add
p6
(csympy.core.mul
Mul
p7
(csympy.core.numbers
Float
p8
((I0
S'1L'
p9
I0
I1
tp10
tp11
Rp12
(dp13
S'_prec'
p14
I53
sbcsympy.functions.elementary.trigonometric
sin
p15
(csympy.core.symbol
Symbol
p16
(S'r'
p17
tp18
Rp19
(dp20
S'_assumptions'
p21
ccopy_reg
_reconstructor
p22
(csympy.core.assumptions
StdFactKB
p23
c__builtin__
dict
p24
(dp25
S'real'
p26
NsS'irrational'
p27
NsS'antihermitian'
p28
NsS'nonpositive'
p29
NsS'algebraic'
p30
NsS'hermitian'
p31
NsS'infinite'
p32
NsS'integer'
p33
NsS'imaginary'
p34
NsS'odd'
p35
NsS'even'
p36
NsS'commutative'
p37
I01
sS'zero'
p38
NsS'positive'
p39
NsS'negative'
p40
NsS'nonnegative'
p41
NsS'complex'
p42
NsS'rational'
p43
NsS'finite'
p44
Nstp45
Rp46
(dp47
S'_generator'
p48
(dp49
sbsbtp50
Rp51
(dp52
bg15
(g16
(S'y'
p53
tp54
Rp55
(dp56
g21
g22
(g23
g24
(dp57
g26
Nsg27
Nsg28
Nsg29
Nsg30
Nsg31
Nsg32
Nsg33
Nsg34
Nsg35
Nsg36
Nsg37
I01
sg38
Nsg39
Nsg40
Nsg41
Nsg42
Nsg43
Nsg44
Nstp58
Rp59
(dp60
g48
(dp61
sbsbtp62
Rp63
(dp64
btp65
Rp66
(dp67
bg7
(g8
((I1
S'26ef9d0b14ba9L'
p68
I-156
I50
tp69
tp70
Rp71
(dp72
g14
I53
sbcsympy.functions.elementary.trigonometric
cos
p73
(g19
tp74
Rp75
(dp76
bg63
tp77
Rp78
(dp79
bg7
(g8
((I1
S'11a62633145c07L'
p80
I-106
I53
tp81
tp82
Rp83
(dp84
g14
I53
sbg73
(g16
(S'p'
p85
tp86
Rp87
(dp88
g21
g22
(g23
g24
(dp89
g26
Nsg27
Nsg28
Nsg29
Nsg30
Nsg31
Nsg32
Nsg33
Nsg34
Nsg35
Nsg36
Nsg37
I01
sg38
Nsg39
Nsg40
Nsg41
Nsg42
Nsg43
Nsg44
Nstp90
Rp91
(dp92
g48
(dp93
sbsbtp94
Rp95
(dp96
bg73
(g55
tp97
Rp98
(dp99
btp100
Rp101
(dp102
bg7
(g8
((I0
S'1L'
p103
I0
I1
tp104
tp105
Rp106
(dp107
g14
I53
sbg75
g98
g15
(g87
tp108
Rp109
(dp110
btp111
Rp112
(dp113
bg7
(g8
((I0
S'26ef9d0b14ba9L'
p114
I-156
I50
tp115
tp116
Rp117
(dp118
g14
I53
sbg98
g109
g51
tp119
Rp120
(dp121
btp122
Rp123
(dp124
bg6
(g7
(g8
((I0
S'1L'
p125
I0
I1
tp126
tp127
Rp128
(dp129
g14
I53
sbg75
g63
tp130
Rp131
(dp132
bg7
(g8
((I1
S'11a62633145c07L'
p133
I-105
I53
tp134
tp135
Rp136
(dp137
g14
I53
sbg95
g98
tp138
Rp139
(dp140
bg7
(g8
((I1
S'1L'
p141
I0
I1
tp142
tp143
Rp144
(dp145
g14
I53
sbg98
g109
g51
tp146
Rp147
(dp148
btp149
Rp150
(dp151
bg6
(g7
(g8
((I0
S'1L'
p152
I0
I1
tp153
tp154
Rp155
(dp156
g14
I53
sbg95
g98
tp157
Rp158
(dp159
bg7
(g8
((I0
S'11a62633145c07L'
p160
I-106
I53
tp161
tp162
Rp163
(dp164
g14
I53
sbg51
g63
tp165
Rp166
(dp167
bg7
(g8
((I0
S'11a62633145c07L'
p168
I-105
I53
tp169
tp170
Rp171
(dp172
g14
I53
sbg75
g63
tp173
Rp174
(dp175
bg7
(g8
((I0
S'11a62633145c07L'
p176
I-106
I53
tp177
tp178
Rp179
(dp180
g14
I53
sbg75
g98
g109
tp181
Rp182
(dp183
bg7
(g8
((I1
S'11a62633145c07L'
p184
I-105
I53
tp185
tp186
Rp187
(dp188
g14
I53
sbg98
g109
g51
tp189
Rp190
(dp191
btp192
Rp193
(dp194
bcsympy.core.numbers
Zero
p195
(I0
tp196
Rp197
(dp198
bg6
(g7
(g8
((I0
S'26ef9d0b14ba9L'
p199
I-156
I50
tp200
tp201
Rp202
(dp203
g14
I53
sbg75
g98
tp204
Rp205
(dp206
bg7
(g8
((I1
S'1L'
p207
I0
I1
tp208
tp209
Rp210
(dp211
g14
I53
sbg98
g51
tp212
Rp213
(dp214
bg7
(g8
((I1
S'11a62633145c07L'
p215
I-106
I53
tp216
tp217
Rp218
(dp219
g14
I53
sbg95
g63
tp220
Rp221
(dp222
bg7
(g8
((I0
S'1L'
p223
I0
I1
tp224
tp225
Rp226
(dp227
g14
I53
sbg75
g109
g63
tp228
Rp229
(dp230
bg7
(g8
((I0
S'26ef9d0b14ba9L'
p231
I-156
I50
tp232
tp233
Rp234
(dp235
g14
I53
sbg109
g51
g63
tp236
Rp237
(dp238
btp239
Rp240
(dp241
bg6
(g7
(g8
((I1
S'1L'
p242
I0
I1
tp243
tp244
Rp245
(dp246
g14
I53
sbg75
g98
tp247
Rp248
(dp249
bg7
(g8
((I1
S'11a62633145c07L'
p250
I-105
I53
tp251
tp252
Rp253
(dp254
g14
I53
sbg95
g63
tp255
Rp256
(dp257
bg7
(g8
((I1
S'1L'
p258
I0
I1
tp259
tp260
Rp261
(dp262
g14
I53
sbg109
g51
g63
tp263
Rp264
(dp265
btp266
Rp267
(dp268
bg6
(g7
(g8
((I0
S'1L'
p269
I0
I1
tp270
tp271
Rp272
(dp273
g14
I53
sbg95
g63
tp274
Rp275
(dp276
bg7
(g8
((I1
S'11a62633145c07L'
p277
I-106
I53
tp278
tp279
Rp280
(dp281
g14
I53
sbg98
g51
tp282
Rp283
(dp284
bg7
(g8
((I1
S'11a62633145c07L'
p285
I-105
I53
tp286
tp287
Rp288
(dp289
g14
I53
sbg75
g98
tp290
Rp291
(dp292
bg7
(g8
((I0
S'11a62633145c07L'
p293
I-106
I53
tp294
tp295
Rp296
(dp297
g14
I53
sbg75
g109
g63
tp298
Rp299
(dp300
bg7
(g8
((I1
S'11a62633145c07L'
p301
I-105
I53
tp302
tp303
Rp304
(dp305
g14
I53
sbg109
g51
g63
tp306
Rp307
(dp308
btp309
Rp310
(dp311
bg197
g6
(g7
(g8
((I0
S'11a62633145c07L'
p312
I-106
I53
tp313
tp314
Rp315
(dp316
g14
I53
sbg109
tp317
Rp318
(dp319
bg7
(g8
((I0
S'1L'
p320
I0
I1
tp321
tp322
Rp323
(dp324
g14
I53
sbg95
g75
tp325
Rp326
(dp327
bg7
(g8
((I0
S'26ef9d0b14ba9L'
p328
I-156
I50
tp329
tp330
Rp331
(dp332
g14
I53
sbg95
g51
tp333
Rp334
(dp335
btp336
Rp337
(dp338
bg6
(g7
(g8
((I0
S'11a62633145c07L'
p339
I-105
I53
tp340
tp341
Rp342
(dp343
g14
I53
sbg109
tp344
Rp345
(dp346
bg7
(g8
((I1
S'1L'
p347
I0
I1
tp348
tp349
Rp350
(dp351
g14
I53
sbg95
g51
tp352
Rp353
(dp354
btp355
Rp356
(dp357
bg6
(g7
(g8
((I1
S'1L'
p358
I0
I1
tp359
tp360
Rp361
(dp362
g14
I53
sbg109
tp363
Rp364
(dp365
bg7
(g8
((I0
S'11a62633145c07L'
p366
I-106
I53
tp367
tp368
Rp369
(dp370
g14
I53
sbg95
g75
tp371
Rp372
(dp373
bg7
(g8
((I1
S'11a62633145c07L'
p374
I-105
I53
tp375
tp376
Rp377
(dp378
g14
I53
sbg95
g51
tp379
Rp380
(dp381
btp382
Rp383
(dp384
bg197
g197
g197
g197
csympy.core.numbers
One
p385
(I1
tp386
Rp387
(dp388
btp389
Rp390
(dp391
btp392
Rp393
(dp394
b.